target datalayout = "e-m:e-p270:32:32-p271:32:32-p272:64:64-i64:64-i128:128-f80:128-n8:16:32:64-S128"
target triple = "x86_64-pc-linux-gnu"

%class.RarTime = type { i64 }

; Function Attrs: mustprogress nounwind uwtable
define void @_ZN7RarTime9SetUnixNSEm(ptr noundef nonnull align 8 dereferenceable(8) %0, i64 noundef %1) #3 align 2 {
  %3 = alloca ptr, align 8
  %4 = alloca i64, align 8
  %5 = alloca i64, align 8
  store ptr %0, ptr %3, align 8, !tbaa !3
  store i64 %1, ptr %4, align 8, !tbaa !10
  %6 = load ptr, ptr %3, align 8
  call void @llvm.lifetime.start.p0(i64 8, ptr %5) #6
  store i64 -6802270473709551616, ptr %5, align 8, !tbaa !10
  %7 = load i64, ptr %4, align 8, !tbaa !10
  %8 = load i64, ptr %5, align 8, !tbaa !10
  %9 = add i64 %7, %8
  %10 = udiv i64 %9, 1
  %11 = getelementptr inbounds nuw %class.RarTime, ptr %6, i32 0, i32 0
  store i64 %10, ptr %11, align 8, !tbaa !34
  call void @llvm.lifetime.end.p0(i64 8, ptr %5) #6
  ret void
}

; Function Attrs: mustprogress uwtable
define void @_ZN7RarTime7SetUnixEl(ptr noundef nonnull align 8 dereferenceable(8) %0, i64 noundef %1) #0 align 2 {
  %3 = alloca ptr, align 8
  %4 = alloca i64, align 8
  store ptr %0, ptr %3, align 8, !tbaa !3
  store i64 %1, ptr %4, align 8, !tbaa !10
  %5 = load ptr, ptr %3, align 8
  %6 = load i64, ptr %4, align 8, !tbaa !10
  %7 = mul i64 %6, 1000000000
  call void @_ZN7RarTime9SetUnixNSEm(ptr noundef nonnull align 8 dereferenceable(8) %5, i64 noundef %7)
  ret void
}

; Function Attrs: mustprogress uwtable
define void @_ZN7RarTime14SetCurrentTimeEv(ptr noundef nonnull align 8 dereferenceable(8) %0) #0 align 2 {
  %2 = alloca ptr, align 8
  %3 = alloca i64, align 8
  store ptr %0, ptr %2, align 8, !tbaa !3
  %4 = load ptr, ptr %2, align 8
  call void @llvm.lifetime.start.p0(i64 8, ptr %3) #6
  %5 = call i64 @time(ptr noundef %3) #6
  %6 = load i64, ptr %3, align 8, !tbaa !10
  call void @_ZN7RarTime7SetUnixEl(ptr noundef nonnull align 8 dereferenceable(8) %4, i64 noundef %6)
  call void @llvm.lifetime.end.p0(i64 8, ptr %3) #6
  ret void
}