; Function Attrs: mustprogress nounwind uwtable
define void @_ZN7RarTime14SetCurrentTimeEv(ptr noundef nonnull writeonly align 8 captures(none) dereferenceable(8) initializes((0, 8)) %0) local_unnamed_addr #0 align 2 {
  %2 = alloca i64, align 8
  call void @llvm.lifetime.start.p0(i64 8, ptr nonnull %2) #13
  %3 = call i64 @time(ptr noundef nonnull %2) #13
  %4 = load i64, ptr %2, align 8, !tbaa !8
  %5 = mul i64 %4, 1000000000
  %6 = add i64 %5, -6802270473709551616
  store i64 %6, ptr %0, align 8, !tbaa !3
  call void @llvm.lifetime.end.p0(i64 8, ptr nonnull %2) #13
  ret void
}